; ModuleID = '43/1745.c'
source_filename = "43/1745.c"
target datalayout = "e-m:e-p270:32:32-p271:32:32-p272:64:64-i64:64-f80:128-n8:16:32:64-S128"
target triple = "x86_64-pc-linux-gnu"

@.str = private unnamed_addr constant [3 x i8] c"%d\00", align 1
@.str.1 = private unnamed_addr constant [6 x i8] c"3 %d\0A\00", align 1
@.str.2 = private unnamed_addr constant [7 x i8] c"%d %d\0A\00", align 1

; Function Attrs: noinline nounwind uwtable
define dso_local void @main() #0 {
  %1 = alloca i32, align 4
  %2 = alloca i32, align 4
  %3 = alloca i32, align 4
  %4 = alloca i32, align 4
  %5 = alloca i32, align 4
  %6 = call i32 (i8*, ...) @__isoc99_scanf(i8* getelementptr inbounds ([3 x i8], [3 x i8]* @.str, i64 0, i64 0), i32* %1)
  %7 = load i32, i32* %1, align 4
  %8 = sub nsw i32 %7, 3
  %9 = sitofp i32 %8 to double
  %10 = call double @sqrt(double %9) #3
  %11 = fptosi double %10 to i32
  store i32 %11, i32* %5, align 4
  store i32 2, i32* %2, align 4
  br label %12

12:                                               ; preds = %24, %0
  %13 = load i32, i32* %2, align 4
  %14 = load i32, i32* %5, align 4
  %15 = icmp sle i32 %13, %14
  br i1 %15, label %16, label %27

16:                                               ; preds = %12
  %17 = load i32, i32* %1, align 4
  %18 = sub nsw i32 %17, 3
  %19 = load i32, i32* %2, align 4
  %20 = srem i32 %18, %19
  %21 = icmp eq i32 %20, 0
  br i1 %21, label %22, label %23

22:                                               ; preds = %16
  br label %27

23:                                               ; preds = %16
  br label %24

24:                                               ; preds = %23
  %25 = load i32, i32* %2, align 4
  %26 = add nsw i32 %25, 1
  store i32 %26, i32* %2, align 4
  br label %12

27:                                               ; preds = %22, %12
  %28 = load i32, i32* %2, align 4
  %29 = load i32, i32* %5, align 4
  %30 = icmp sgt i32 %28, %29
  br i1 %30, label %31, label %35

31:                                               ; preds = %27
  %32 = load i32, i32* %1, align 4
  %33 = sub nsw i32 %32, 3
  %34 = call i32 (i8*, ...) @printf(i8* getelementptr inbounds ([6 x i8], [6 x i8]* @.str.1, i64 0, i64 0), i32 %33)
  br label %35

35:                                               ; preds = %31, %27
  store i32 5, i32* %3, align 4
  br label %36

36:                                               ; preds = %99, %35
  %37 = load i32, i32* %3, align 4
  %38 = load i32, i32* %1, align 4
  %39 = sdiv i32 %38, 2
  %40 = icmp sle i32 %37, %39
  br i1 %40, label %41, label %102

41:                                               ; preds = %36
  %42 = load i32, i32* %3, align 4
  %43 = sitofp i32 %42 to double
  %44 = call double @sqrt(double %43) #3
  %45 = fptosi double %44 to i32
  store i32 %45, i32* %5, align 4
  store i32 2, i32* %2, align 4
  br label %46

46:                                               ; preds = %57, %41
  %47 = load i32, i32* %2, align 4
  %48 = load i32, i32* %5, align 4
  %49 = icmp sle i32 %47, %48
  br i1 %49, label %50, label %60

50:                                               ; preds = %46
  %51 = load i32, i32* %3, align 4
  %52 = load i32, i32* %2, align 4
  %53 = srem i32 %51, %52
  %54 = icmp eq i32 %53, 0
  br i1 %54, label %55, label %56

55:                                               ; preds = %50
  br label %60

56:                                               ; preds = %50
  br label %57

57:                                               ; preds = %56
  %58 = load i32, i32* %2, align 4
  %59 = add nsw i32 %58, 1
  store i32 %59, i32* %2, align 4
  br label %46

60:                                               ; preds = %55, %46
  %61 = load i32, i32* %2, align 4
  %62 = load i32, i32* %5, align 4
  %63 = icmp sgt i32 %61, %62
  br i1 %63, label %64, label %98

64:                                               ; preds = %60
  %65 = load i32, i32* %1, align 4
  %66 = load i32, i32* %3, align 4
  %67 = sub nsw i32 %65, %66
  %68 = sitofp i32 %67 to double
  %69 = call double @sqrt(double %68) #3
  %70 = fptosi double %69 to i32
  store i32 %70, i32* %4, align 4
  store i32 2, i32* %2, align 4
  br label %71

71:                                               ; preds = %84, %64
  %72 = load i32, i32* %2, align 4
  %73 = load i32, i32* %4, align 4
  %74 = icmp sle i32 %72, %73
  br i1 %74, label %75, label %87

75:                                               ; preds = %71
  %76 = load i32, i32* %1, align 4
  %77 = load i32, i32* %3, align 4
  %78 = sub nsw i32 %76, %77
  %79 = load i32, i32* %2, align 4
  %80 = srem i32 %78, %79
  %81 = icmp eq i32 %80, 0
  br i1 %81, label %82, label %83

82:                                               ; preds = %75
  br label %87

83:                                               ; preds = %75
  br label %84

84:                                               ; preds = %83
  %85 = load i32, i32* %2, align 4
  %86 = add nsw i32 %85, 1
  store i32 %86, i32* %2, align 4
  br label %71

87:                                               ; preds = %82, %71
  %88 = load i32, i32* %2, align 4
  %89 = load i32, i32* %4, align 4
  %90 = icmp sgt i32 %88, %89
  br i1 %90, label %91, label %97

91:                                               ; preds = %87
  %92 = load i32, i32* %3, align 4
  %93 = load i32, i32* %1, align 4
  %94 = load i32, i32* %3, align 4
  %95 = sub nsw i32 %93, %94
  %96 = call i32 (i8*, ...) @printf(i8* getelementptr inbounds ([7 x i8], [7 x i8]* @.str.2, i64 0, i64 0), i32 %92, i32 %95)
  br label %97

97:                                               ; preds = %91, %87
  br label %98

98:                                               ; preds = %97, %60
  br label %99

99:                                               ; preds = %98
  %100 = load i32, i32* %3, align 4
  %101 = add nsw i32 %100, 1
  store i32 %101, i32* %3, align 4
  br label %36

102:                                              ; preds = %36
  ret void
}

declare dso_local i32 @__isoc99_scanf(i8*, ...) #1

; Function Attrs: nounwind
declare dso_local double @sqrt(double) #2

declare dso_local i32 @printf(i8*, ...) #1


!llvm.module.flags = !{!0}
!llvm.ident = !{!1}

!0 = !{i32 1, !"wchar_size", i32 4}
!1 = !{!"clang version 10.0.0-4ubuntu1 "}
